target datalayout = "e-m:e-p270:32:32-p271:32:32-p272:64:64-i64:64-i128:128-f80:128-n8:16:32:64-S128"
target triple = "x86_64-pc-linux-gnu"

%struct._generic_N_Vector = type { ptr, ptr, ptr }
%struct._N_VectorContent_Serial = type { i64, i32, ptr }

; Function Attrs: nounwind uwtable
define double @N_VWSqrSumLocal_Serial(ptr noundef %0, ptr noundef %1) #0 {
  %3 = alloca ptr, align 8
  %4 = alloca ptr, align 8
  %5 = alloca i64, align 8
  %6 = alloca i64, align 8
  %7 = alloca double, align 8
  %8 = alloca double, align 8
  %9 = alloca ptr, align 8
  %10 = alloca ptr, align 8
  store ptr %0, ptr %3, align 8, !tbaa !10
  store ptr %1, ptr %4, align 8, !tbaa !10
  call void @llvm.lifetime.start.p0(i64 8, ptr %5) #6
  call void @llvm.lifetime.start.p0(i64 8, ptr %6) #6
  call void @llvm.lifetime.start.p0(i64 8, ptr %7) #6
  call void @llvm.lifetime.start.p0(i64 8, ptr %8) #6
  call void @llvm.lifetime.start.p0(i64 8, ptr %9) #6
  call void @llvm.lifetime.start.p0(i64 8, ptr %10) #6
  store double 0.000000e+00, ptr %7, align 8, !tbaa !72
  store ptr null, ptr %10, align 8, !tbaa !69
  store ptr null, ptr %9, align 8, !tbaa !69
  %11 = load ptr, ptr %3, align 8, !tbaa !10
  %12 = getelementptr inbounds nuw %struct._generic_N_Vector, ptr %11, i32 0, i32 0
  %13 = load ptr, ptr %12, align 8, !tbaa !61
  %14 = getelementptr inbounds nuw %struct._N_VectorContent_Serial, ptr %13, i32 0, i32 0
  %15 = load i64, ptr %14, align 8, !tbaa !62
  store i64 %15, ptr %6, align 8, !tbaa !3
  %16 = load ptr, ptr %3, align 8, !tbaa !10
  %17 = getelementptr inbounds nuw %struct._generic_N_Vector, ptr %16, i32 0, i32 0
  %18 = load ptr, ptr %17, align 8, !tbaa !61
  %19 = getelementptr inbounds nuw %struct._N_VectorContent_Serial, ptr %18, i32 0, i32 2
  %20 = load ptr, ptr %19, align 8, !tbaa !67
  store ptr %20, ptr %9, align 8, !tbaa !69
  %21 = load ptr, ptr %4, align 8, !tbaa !10
  %22 = getelementptr inbounds nuw %struct._generic_N_Vector, ptr %21, i32 0, i32 0
  %23 = load ptr, ptr %22, align 8, !tbaa !61
  %24 = getelementptr inbounds nuw %struct._N_VectorContent_Serial, ptr %23, i32 0, i32 2
  %25 = load ptr, ptr %24, align 8, !tbaa !67
  store ptr %25, ptr %10, align 8, !tbaa !69
  store i64 0, ptr %5, align 8, !tbaa !3
  br label %26

26:                                               ; preds = %44, %2
  %27 = load i64, ptr %5, align 8, !tbaa !3
  %28 = load i64, ptr %6, align 8, !tbaa !3
  %29 = icmp slt i64 %27, %28
  br i1 %29, label %30, label %47

30:                                               ; preds = %26
  %31 = load ptr, ptr %9, align 8, !tbaa !69
  %32 = load i64, ptr %5, align 8, !tbaa !3
  %33 = getelementptr inbounds double, ptr %31, i64 %32
  %34 = load double, ptr %33, align 8, !tbaa !72
  %35 = load ptr, ptr %10, align 8, !tbaa !69
  %36 = load i64, ptr %5, align 8, !tbaa !3
  %37 = getelementptr inbounds double, ptr %35, i64 %36
  %38 = load double, ptr %37, align 8, !tbaa !72
  %39 = fmul double %34, %38
  store double %39, ptr %8, align 8, !tbaa !72
  %40 = load double, ptr %8, align 8, !tbaa !72
  %41 = load double, ptr %8, align 8, !tbaa !72
  %42 = load double, ptr %7, align 8, !tbaa !72
  %43 = call double @llvm.fmuladd.f64(double %40, double %41, double %42)
  store double %43, ptr %7, align 8, !tbaa !72
  br label %44

44:                                               ; preds = %30
  %45 = load i64, ptr %5, align 8, !tbaa !3
  %46 = add nsw i64 %45, 1
  store i64 %46, ptr %5, align 8, !tbaa !3
  br label %26

47:                                               ; preds = %26
  %48 = load double, ptr %7, align 8, !tbaa !72
  call void @llvm.lifetime.end.p0(i64 8, ptr %10) #6
  call void @llvm.lifetime.end.p0(i64 8, ptr %9) #6
  call void @llvm.lifetime.end.p0(i64 8, ptr %8) #6
  call void @llvm.lifetime.end.p0(i64 8, ptr %7) #6
  call void @llvm.lifetime.end.p0(i64 8, ptr %6) #6
  call void @llvm.lifetime.end.p0(i64 8, ptr %5) #6
  ret double %48
}

; Function Attrs: nounwind uwtable
define double @N_VWrmsNorm_Serial(ptr noundef %0, ptr noundef %1) #0 {
  %3 = alloca ptr, align 8
  %4 = alloca ptr, align 8
  %5 = alloca ptr, align 8
  %6 = alloca double, align 8
  store ptr %0, ptr %3, align 8, !tbaa !10
  store ptr %1, ptr %4, align 8, !tbaa !10
  call void @llvm.lifetime.start.p0(i64 8, ptr %5) #6
  %7 = load ptr, ptr %3, align 8, !tbaa !10
  %8 = getelementptr inbounds nuw %struct._generic_N_Vector, ptr %7, i32 0, i32 2
  %9 = load ptr, ptr %8, align 8, !tbaa !68
  store ptr %9, ptr %5, align 8, !tbaa !7
  call void @llvm.lifetime.start.p0(i64 8, ptr %6) #6
  %10 = load ptr, ptr %3, align 8, !tbaa !10
  %11 = load ptr, ptr %4, align 8, !tbaa !10
  %12 = call double @N_VWSqrSumLocal_Serial(ptr noundef %10, ptr noundef %11)
  store double %12, ptr %6, align 8, !tbaa !72
  %13 = load double, ptr %6, align 8, !tbaa !72
  %14 = load ptr, ptr %3, align 8, !tbaa !10
  %15 = getelementptr inbounds nuw %struct._generic_N_Vector, ptr %14, i32 0, i32 0
  %16 = load ptr, ptr %15, align 8, !tbaa !61
  %17 = getelementptr inbounds nuw %struct._N_VectorContent_Serial, ptr %16, i32 0, i32 0
  %18 = load i64, ptr %17, align 8, !tbaa !62
  %19 = sitofp i64 %18 to double
  %20 = fdiv double %13, %19
  %21 = fcmp ole double %20, 0.000000e+00
  br i1 %21, label %22, label %23

22:                                               ; preds = %2
  br label %33

23:                                               ; preds = %2
  %24 = load double, ptr %6, align 8, !tbaa !72
  %25 = load ptr, ptr %3, align 8, !tbaa !10
  %26 = getelementptr inbounds nuw %struct._generic_N_Vector, ptr %25, i32 0, i32 0
  %27 = load ptr, ptr %26, align 8, !tbaa !61
  %28 = getelementptr inbounds nuw %struct._N_VectorContent_Serial, ptr %27, i32 0, i32 0
  %29 = load i64, ptr %28, align 8, !tbaa !62
  %30 = sitofp i64 %29 to double
  %31 = fdiv double %24, %30
  %32 = call double @sqrt(double noundef %31) #6, !tbaa !74
  br label %33

33:                                               ; preds = %23, %22
  %34 = phi double [ 0.000000e+00, %22 ], [ %32, %23 ]
  store double %34, ptr %6, align 8, !tbaa !72
  %35 = load double, ptr %6, align 8, !tbaa !72
  call void @llvm.lifetime.end.p0(i64 8, ptr %6) #6
  call void @llvm.lifetime.end.p0(i64 8, ptr %5) #6
  ret double %35
}