; Function Attrs: nofree nounwind memory(readwrite, inaccessiblemem: write) uwtable
define double @N_VWrmsNorm_Serial(ptr noundef readonly captures(none) %0, ptr noundef readonly captures(none) %1) #9 {
  %3 = load ptr, ptr %0, align 8, !tbaa !54
  %4 = load i64, ptr %3, align 8, !tbaa !55
  %5 = getelementptr inbounds nuw i8, ptr %3, i64 16
  %6 = load ptr, ptr %5, align 8, !tbaa !61
  %7 = load ptr, ptr %1, align 8, !tbaa !54
  %8 = getelementptr inbounds nuw i8, ptr %7, i64 16
  %9 = load ptr, ptr %8, align 8, !tbaa !61
  %10 = icmp sgt i64 %4, 0
  br i1 %10, label %.lr.ph.i, label %N_VWSqrSumLocal_Serial.exit

.lr.ph.i:                                         ; preds = %2, %.lr.ph.i
  %.015.i = phi i64 [ %17, %.lr.ph.i ], [ 0, %2 ]
  %.01314.i = phi double [ %16, %.lr.ph.i ], [ 0.000000e+00, %2 ]
  %11 = getelementptr inbounds nuw double, ptr %6, i64 %.015.i
  %12 = load double, ptr %11, align 8, !tbaa !64
  %13 = getelementptr inbounds nuw double, ptr %9, i64 %.015.i
  %14 = load double, ptr %13, align 8, !tbaa !64
  %15 = fmul double %12, %14
  %16 = tail call double @llvm.fmuladd.f64(double %15, double %15, double %.01314.i)
  %17 = add nuw nsw i64 %.015.i, 1
  %exitcond.not.i = icmp eq i64 %17, %4
  br i1 %exitcond.not.i, label %N_VWSqrSumLocal_Serial.exit, label %.lr.ph.i

N_VWSqrSumLocal_Serial.exit:                      ; preds = %.lr.ph.i, %2
  %.013.lcssa.i = phi double [ 0.000000e+00, %2 ], [ %16, %.lr.ph.i ]
  %18 = sitofp i64 %4 to double
  %19 = fdiv double %.013.lcssa.i, %18
  %20 = fcmp ugt double %19, 0.000000e+00
  br i1 %20, label %21, label %23

21:                                               ; preds = %N_VWSqrSumLocal_Serial.exit
  %22 = tail call double @sqrt(double noundef %19) #20, !tbaa !66
  br label %23

23:                                               ; preds = %N_VWSqrSumLocal_Serial.exit, %21
  %24 = phi double [ %22, %21 ], [ 0.000000e+00, %N_VWSqrSumLocal_Serial.exit ]
  ret double %24
}